target datalayout = "e-m:e-p270:32:32-p271:32:32-p272:64:64-i64:64-i128:128-f80:128-n8:16:32:64-S128"
target triple = "x86_64-pc-linux-gnu"

; Function Attrs: nounwind uwtable
define dso_local i32 @type_maximum_size(i32 noundef %0, i32 noundef %1) #0 {
  %3 = alloca i32, align 4
  %4 = alloca i32, align 4
  %5 = alloca i32, align 4
  store i32 %0, ptr %4, align 4
  store i32 %1, ptr %5, align 4
  %6 = load i32, ptr %5, align 4
  %7 = icmp slt i32 %6, 0
  br i1 %7, label %8, label %9

8:                                                ; preds = %2
  store i32 -1, ptr %3, align 4
  br label %29

9:                                                ; preds = %2
  %10 = load i32, ptr %4, align 4
  switch i32 %10, label %28 [
    i32 1042, label %11
    i32 1043, label %11
    i32 1700, label %18
    i32 1562, label %21
    i32 1560, label %21
  ]

11:                                               ; preds = %9, %9
  %12 = load i32, ptr %5, align 4
  %13 = sub i32 %12, 4
  %14 = call i32 @GetDatabaseEncoding()
  %15 = call i32 @pg_encoding_max_length(i32 noundef %14)
  %16 = mul i32 %13, %15
  %17 = add i32 %16, 4
  store i32 %17, ptr %3, align 4
  br label %29

18:                                               ; preds = %9
  %19 = load i32, ptr %5, align 4
  %20 = call i32 @numeric_maximum_size(i32 noundef %19)
  store i32 %20, ptr %3, align 4
  br label %29

21:                                               ; preds = %9, %9
  %22 = load i32, ptr %5, align 4
  %23 = add i32 %22, 7
  %24 = sdiv i32 %23, 8
  %25 = sext i32 %24 to i64
  %26 = add i64 %25, 8
  %27 = trunc i64 %26 to i32
  store i32 %27, ptr %3, align 4
  br label %29

28:                                               ; preds = %9
  store i32 -1, ptr %3, align 4
  br label %29

29:                                               ; preds = %28, %21, %18, %11, %8
  %30 = load i32, ptr %3, align 4
  ret i32 %30
}