; Function Attrs: nounwind uwtable
define dso_local i32 @type_maximum_size(i32 noundef %0, i32 noundef %1) local_unnamed_addr #0 {
  %3 = icmp slt i32 %1, 0
  br i1 %3, label %16, label %4

4:                                                ; preds = %2
  switch i32 %0, label %16 [
    i32 1042, label %5
    i32 1043, label %5
    i32 1700, label %11
    i32 1562, label %13
    i32 1560, label %13
  ]

5:                                                ; preds = %4, %4
  %6 = add nsw i32 %1, -4
  %7 = tail call i32 @GetDatabaseEncoding() #7
  %8 = tail call i32 @pg_encoding_max_length(i32 noundef %7) #7
  %9 = mul i32 %8, %6
  %10 = add i32 %9, 4
  br label %16

11:                                               ; preds = %4
  %12 = tail call i32 @numeric_maximum_size(i32 noundef %1) #7
  br label %16

13:                                               ; preds = %4, %4
  %14 = add nuw i32 %1, 7
  %15 = sdiv i32 %14, 8
  %narrow = add nsw i32 %15, 8
  br label %16

16:                                               ; preds = %4, %2, %13, %11, %5
  %.0 = phi i32 [ %narrow, %13 ], [ %12, %11 ], [ %10, %5 ], [ -1, %2 ], [ -1, %4 ]
  ret i32 %.0
}